(dp1
S'output'
p2
S"<type 'exceptions.NameError'> global name 'form' is not defined"
p3
sS'layer'
p4
S'/Applications/web2py.app/Contents/Resources/applications/gcontratos/controllers/default.py'
p5
sS'code'
p6
S'# -*- coding: utf-8 -*-\n### required - do no delete\ndef user(): return dict(form=auth())\ndef download(): return response.download(request,db)\ndef call(): return service()\n### end requires\ndef index():\n    return dict()\n\ndef error():\n    return dict()\n\n@auth.requires_login()\ndef nuevoConPersona():\n    form=FORM(DIV(FIELDSET(LEGEND(\'Datos Personales\'),\n                       DIV(LABEL(\'Nombres Completos\'),INPUT(_name=\'nombres\', _placeholder=\'Nombres Completos\', requires=IS_NOT_EMPTY())),\n                       DIV(LABEL(\'Apellidos Completos\'),INPUT(_name=\'apellidos\', _placeholder=\'Apellidos Completos\', requires=IS_NOT_EMPTY())),\n                       DIV(LABEL(\'Documento de Identidad\'),INPUT(_name=\'idPersona\', _type=\'number\', _placeholder=\'Documento de Identidad\', requires=IS_NOT_EMPTY())),\n                       DIV(LABEL(\'Tel\xc3\xa9fono\'),INPUT(_name=\'telefono\', _type=\'number\', _placeholder=\'Tel\xc3\xa9fono\', requires=IS_NOT_EMPTY())),\n                       DIV(LABEL(\'Profesi\xc3\xb3n\'),INPUT(_name=\'profesion\', _placeholder=\'Profesi\xc3\xb3n\', requires=IS_NOT_EMPTY())),\n                       DIV(LABEL(\'Experiencia\'), TEXTAREA(_name=\'experienciaX\', _placeholder=\'Experiencia\', requires=IS_NOT_EMPTY())),\n                       DIV(LEGEND(\'Domicilio Personal\'),\n                           DIV(LABEL(\'Direccion\'),INPUT(_name=\'direccionX\', _placeholder=\'Direccion\', requires=IS_NOT_EMPTY())),\n                           DIV(LABEL(\'Ciudad\'),INPUT(_name=\'ciudad\', _placeholder=\'Ciudad\', requires=IS_NOT_EMPTY())),\n                           DIV(LABEL(\'Pais\'),INPUT(_name=\'paisPersona\', _placeholder=\'Pais\', requires=IS_NOT_EMPTY())),\n                          ),\n                      ),\n                  FIELDSET(LEGEND(\'Objeto\'),\n                       DIV(LABEL(\'Nombre de la Consultor\xc3\xada\'),INPUT(_name=\'consultoria\', _placeholder=\'Nombre de la Consultor\xc3\xada\', requires=IS_NOT_EMPTY())),\n                       DIV(LABEL(\'Descripci\xc3\xb3n\'), TEXTAREA(_name=\'descripcionX\', _placeholder=\'Descripci\xc3\xb3n\', requires=IS_NOT_EMPTY())),\n                       DIV(LEGEND(\'Obligaciones Adicionales\'),\n                           DIV(INPUT(_type=\'radio\', _name=\'rbnObligaciones\', _value=True), \' Existen\'),\n                           DIV(INPUT(_type=\'radio\', _name=\'rbnObligaciones\', _value=False, _checked=True), \' No Existen\'),\n                           DIV(TEXTAREA(_name=\'obligacionesAdicionalesX\', _placeholder=\'Si aplica\')),\n                          ),\n                      ),\n                 _class=\'columna\',\n                 ),\n              DIV(FIELDSET(LEGEND(\'Duracion y Honorarios\'),\n                       DIV(LABEL(\'Fecha de Inicio\'),INPUT(_name=\'fechaInicio\', _type=\'date\', requires=IS_NOT_EMPTY())),\n                       DIV(LABEL(\'Fecha de Fin\'),INPUT(_name=\'fechaFin\', _type=\'date\', requires=IS_NOT_EMPTY())),\n                       DIV(LABEL(\'Monto\'), INPUT(_name=\'monto\', _type=\'number\', _placeholder=\'Monto\', requires=IS_NOT_EMPTY())),\n                       DIV(LABEL(\'Pais\'),INPUT(_name=\'paisContrato\', _placeholder=\'Pais\', requires=IS_NOT_EMPTY())),\n                       DIV(LEGEND(\'IVA\'),\n                           DIV(INPUT(_type=\'radio\', _name=\'rbnIVA\', _value=True), \' Incluye\'),\n                           DIV(INPUT(_type=\'radio\', _name=\'rbnIVA\', _value=False, _checked=True), \' No Incluye\'),\n                           _class=\'honorarios\',\n                          ),\n                       DIV(LEGEND(\'IR\'),\n                           DIV(INPUT(_type=\'radio\', _name=\'rbnIR\', _value=True), \' Incluye\'),\n                           DIV(INPUT(_type=\'radio\', _name=\'rbnIR\', _value=False, _checked=True), \' No Incluye\'),\n                           _class=\'honorarios\',\n                          ),\n                       DIV(LEGEND(\'Gastos de Viaje\'),\n                           DIV(INPUT(_type=\'radio\', _name=\'rbnGastos\', _value=True), \' Incluye\'),\n                           DIV(INPUT(_type=\'radio\', _name=\'rbnGastos\', _value=False, _checked=True), \' No Incluye\'),\n                           _class=\'honorarios\',\n                          ),\n                       DIV(LABEL(\'Forma de Pago\'), SPAN(\'En caso de ser pagos parciales indicar porcentajes o valores, productos y fechas previstas separados con punto y coma (;)\'), TEXTAREA(_name=\'formaPagoX\', _placeholder=\'Forma de Pago\', requires=IS_NOT_EMPTY())),\n                      ),\n                  FIELDSET(LEGEND(\'Datos Bancarios\'),\n                       DIV(LABEL(\'Nombre del Banco\'),INPUT(_name=\'nombreBanco\', _placeholder=\'Nombre del Banco\', requires=IS_NOT_EMPTY())),\n                       DIV(LABEL(\'N\xc3\xbamero de Cuenta\'),INPUT(_name=\'numeroCuenta\', _type=\'number\', _placeholder=\'N\xc3\xbamero de Cuenta\', requires=IS_NOT_EMPTY())),\n                       DIV(LABEL(\'Tipo de Cuenta\'),INPUT(_name=\'tipo\', _placeholder=\'Si aplica\')),\n                       DIV(LABEL(\'C\xc3\xb3digo SWIFT\'),INPUT(_name=\'swift\', _placeholder=\'Si aplica\')),\n                      ),\n                  FIELDSET(LEGEND(\'Datos Internos\'),\n                       DIV(LABEL(\'Fecha de Firma\'),INPUT(_name=\'fechaFirma\', _type=\'date\', requires=IS_NOT_EMPTY())),\n                       DIV(LABEL(\'Proyecto\'),INPUT(_name=\'proyecto\', _placeholder=\'Proyecto\', requires=IS_NOT_EMPTY())),\n                       DIV(LABEL(\'Fecha de Elaboracion\'),INPUT(_name=\'fechaElaboracionX\', _type=\'date\', requires=IS_NOT_EMPTY())),\n                      ),\n                 _class=\'columna\',\n                 ),\n              DIV(INPUT(_type=\'submit\',_value=\'Crear\', _class=\'btnEnviar\'))\n             )\n    if form.accepts(request,session):\n        response.flash = \'form accepted\'\n    elif form.errors:\n        response.flash = \'form has errors\'\n    return dict(form=form)\n\n@auth.requires_login()\ndef nuevoConEmpresa():\n    form=FORM(DIV(FIELDSET(LEGEND(\'Datos Generales\'),\n                       DIV(LABEL(\'Nombre del Representante\'),INPUT(_name=\'nombresPersona\', _placeholder=\'Nombre del Representante\', requires=IS_NOT_EMPTY())),\n                       DIV(LABEL(\'Apellido  del Representante\'),INPUT(_name=\'apellidosPersona\', _placeholder=\'Apellido del Representante\', requires=IS_NOT_EMPTY())),\n                       DIV(LABEL(\'Documento de Identidad del Representante\'),INPUT(_name=\'idPersona\', _type=\'number\', _placeholder=\'Documento de Identidad del Representante\', requires=IS_NOT_EMPTY())),\n                       DIV(LABEL(\'Nombre de la Empresa\'),INPUT(_name=\'nombreEmpresa\', _placeholder=\'Nombre de la Empresa\', requires=IS_NOT_EMPTY())),\n                       DIV(LABEL(\'RUC de la Empresa\'),INPUT(_name=\'ruc\', _type=\'number\', _placeholder=\'RUC de la Empresa\', requires=IS_NOT_EMPTY())),\n                       DIV(LABEL(\'Tel\xc3\xa9fono\'),INPUT(_name=\'telefono\', _type=\'number\', _placeholder=\'Tel\xc3\xa9fono\', requires=IS_NOT_EMPTY())),\n                       DIV(LABEL(\'Especializaci\xc3\xb3n\'),INPUT(_name=\'especializacion\', _placeholder=\'Especializaci\xc3\xb3n\', requires=IS_NOT_EMPTY())),\n                       DIV(LABEL(\'Experiencia\'), TEXTAREA(_name=\'experienciaX\', _placeholder=\'Experiencia\', requires=IS_NOT_EMPTY())),\n                       DIV(LEGEND(\'Ubicaci\xc3\xb3n Empresa\'),\n                           DIV(LABEL(\'Direccion\'),INPUT(_name=\'direccionX\', _placeholder=\'Direccion\', requires=IS_NOT_EMPTY())),\n                           DIV(LABEL(\'Ciudad\'),INPUT(_name=\'ciudad\', _placeholder=\'Ciudad\', requires=IS_NOT_EMPTY())),\n                           DIV(LABEL(\'Pais\'),INPUT(_name=\'paisEmpresa\', _placeholder=\'Pais\', requires=IS_NOT_EMPTY())),\n                          ),\n                      ),\n                  FIELDSET(LEGEND(\'Objeto\'),\n                       DIV(LABEL(\'Nombre de la Consultor\xc3\xada\'),INPUT(_name=\'consultoria\', _placeholder=\'Nombre de la Consultor\xc3\xada\', requires=IS_NOT_EMPTY())),\n                       DIV(LABEL(\'Descripci\xc3\xb3n\'), TEXTAREA(_name=\'descripcionX\', _placeholder=\'Descripci\xc3\xb3n\', requires=IS_NOT_EMPTY())),\n                       DIV(LEGEND(\'Obligaciones Adicionales\'),\n                           DIV(INPUT(_type=\'radio\', _name=\'rbnObligaciones\', _value=True), \' Existen\'),\n                           DIV(INPUT(_type=\'radio\', _name=\'rbnObligaciones\', _value=False, _checked=True), \' No Existen\'),\n                           DIV(TEXTAREA(_name=\'obligacionesAdicionalesX\', _placeholder=\'Si aplica\')),\n                          ),\n                      ),\n                 _class=\'columna\',\n                 ),\n              DIV(FIELDSET(LEGEND(\'Duracion y Honorarios\'),\n                       DIV(LABEL(\'Fecha de Inicio\'),INPUT(_name=\'fechaInicio\', _type=\'date\', requires=IS_NOT_EMPTY())),\n                       DIV(LABEL(\'Fecha de Fin\'),INPUT(_name=\'fechaFin\', _type=\'date\', requires=IS_NOT_EMPTY())),\n                       DIV(LABEL(\'Monto\'), INPUT(_name=\'monto\', _type=\'number\', _placeholder=\'Monto\', requires=IS_NOT_EMPTY())),\n                       DIV(LABEL(\'Pais\'),INPUT(_name=\'paisContrato\', _placeholder=\'Pais\', requires=IS_NOT_EMPTY())),\n                       DIV(LEGEND(\'IVA\'),\n                           DIV(INPUT(_type=\'radio\', _name=\'rbnIVA\', _value=True), \' Incluye\'),\n                           DIV(INPUT(_type=\'radio\', _name=\'rbnIVA\', _value=False, _checked=True), \' No Incluye\'),\n                           _class=\'honorarios\',\n                          ),\n                       DIV(LEGEND(\'IR\'),\n                           DIV(INPUT(_type=\'radio\', _name=\'rbnIR\', _value=True), \' Incluye\'),\n                           DIV(INPUT(_type=\'radio\', _name=\'rbnIR\', _value=False, _checked=True), \' No Incluye\'),\n                           _class=\'honorarios\',\n                          ),\n                       DIV(LEGEND(\'Gastos de Viaje\'),\n                           DIV(INPUT(_type=\'radio\', _name=\'rbnGastos\', _value=True), \' Incluye\'),\n                           DIV(INPUT(_type=\'radio\', _name=\'rbnGastos\', _value=False, _checked=True), \' No Incluye\'),\n                           _class=\'honorarios\',\n                          ),\n                       DIV(LABEL(\'Forma de Pago\'), SPAN(\'En caso de ser pagos parciales indicar porcentajes o valores, productos y fechas previstas separados con punto y coma (;)\'), TEXTAREA(_name=\'formaPagoX\', _placeholder=\'Forma de Pago\', requires=IS_NOT_EMPTY())),\n                      ),\n                  FIELDSET(LEGEND(\'Datos Bancarios\'),\n                       DIV(LABEL(\'Nombre del Banco\'),INPUT(_name=\'nombreBanco\', _placeholder=\'Nombre del Banco\', requires=IS_NOT_EMPTY())),\n                       DIV(LABEL(\'N\xc3\xbamero de Cuenta\'),INPUT(_name=\'numeroCuenta\', _type=\'number\', _placeholder=\'N\xc3\xbamero de Cuenta\', requires=IS_NOT_EMPTY())),\n                       DIV(LABEL(\'Tipo de Cuenta\'),INPUT(_name=\'tipo\', _placeholder=\'Si aplica\')),\n                       DIV(LABEL(\'C\xc3\xb3digo SWIFT\'),INPUT(_name=\'swift\', _placeholder=\'Si aplica\')),\n                      ),\n                  FIELDSET(LEGEND(\'Datos Internos\'),\n                       DIV(LABEL(\'Fecha de Firma\'),INPUT(_name=\'fechaFirma\', _type=\'date\', requires=IS_NOT_EMPTY())),\n                       DIV(LABEL(\'Proyecto\'),INPUT(_name=\'proyecto\', _placeholder=\'Proyecto\', requires=IS_NOT_EMPTY())),\n                       DIV(LABEL(\'Fecha de Elaboracion\'),INPUT(_name=\'fechaElaboracionX\', _type=\'date\', requires=IS_NOT_EMPTY())),\n                      ),\n                 _class=\'columna\',\n                 ),\n              DIV(INPUT(_type=\'submit\',_value=\'Crear\', _class=\'btnEnviar\'))\n             )\n    if form.accepts(request,session):\n        response.flash = \'form accepted\'\n    elif form.errors:\n        response.flash = \'form has errors\'\n    return dict(form=form)\n\n@auth.requires_login()\ndef nuevaEnmienda():\n    form1=FORM(FIELDSET(LEGEND(\'Contrato\'),\n                        DIV(\n                            DIV(LABEL(\'N\xc3\xbamero de Contrato\'),INPUT(_name=\'contrato\', _type=\'number\', _placeholder=\'N\xc3\xbamero de Contrato\', requires=IS_NOT_EMPTY())),\n                            DIV(INPUT(_type=\'submit\',_value=\'IR\')),\n                            _class=\'columna\',\n                           ),\n                        DIV(\n                            DIV(LABEL(\'Nombre Contratista\'),INPUT(_name=\'nombres\', _readonly=ON)),\n                            DIV(LABEL(\'Documento de Identidad\'),INPUT(_name=\'documentoId\', _readonly=ON)),\n                            DIV(LABEL(\'Fecha Contrato\'),INPUT(_name=\'fechaFirmaContrato\', _type=\'date\', _readonly=ON)),\n                            _class=\'columna\',\n                           )\n                       )\n              )\n    form2=FORM(DIV(FIELDSET(LEGEND(\'Objeto\'),\n                           DIV(LABEL(\'Nombre de la Consultor\xc3\xada\'),INPUT(_name=\'consultoria\', _placeholder=\'Nombre de la Consultor\xc3\xada\', requires=IS_NOT_EMPTY())),\n                           DIV(LABEL(\'Descripci\xc3\xb3n\'), TEXTAREA(_name=\'descripcionX\', _placeholder=\'Descripci\xc3\xb3n\', requires=IS_NOT_EMPTY())),\n                           DIV(LEGEND(\'Obligaciones Adicionales\'),\n                               DIV(INPUT(_type=\'radio\', _name=\'rbnObligaciones\', _value=True), \' Existen\'),\n                               DIV(INPUT(_type=\'radio\', _name=\'rbnObligaciones\', _value=False, _checked=True), \' No Existen\'),\n                               DIV(TEXTAREA(_name=\'obligacionesAdicionalesX\', _placeholder=\'Si aplica\')),\n                              ),\n                           ),\n                   FIELDSET(LEGEND(\'Duraci\xc3\xb3n\'),\n                            DIV(LABEL(\'Fecha de Inicio\'),INPUT(_name=\'fechaInicio\', _type=\'date\', requires=IS_NOT_EMPTY())),\n                            DIV(LABEL(\'Fecha de Fin\'),INPUT(_name=\'fechaFin\', _type=\'date\', requires=IS_NOT_EMPTY())),\n                           ),\n                 _class=\'columna\',\n                 ),\n               DIV(FIELDSET(LEGEND(\'Honorarios\'),\n                            DIV(LABEL(\'Monto\'), INPUT(_name=\'monto\', _type=\'number\', _placeholder=\'Monto\', requires=IS_NOT_EMPTY())),\n                            DIV(LEGEND(\'IVA\'),\n                                DIV(INPUT(_type=\'radio\', _name=\'rbnIVA\', _value=True), \' Incluye\'),\n                                DIV(INPUT(_type=\'radio\', _name=\'rbnIVA\', _value=False, _checked=True), \' No Incluye\'),\n                                _class=\'honorarios\',\n                               ),\n                            DIV(LEGEND(\'IR\'),\n                                DIV(INPUT(_type=\'radio\', _name=\'rbnIR\', _value=True), \' Incluye\'),\n                                DIV(INPUT(_type=\'radio\', _name=\'rbnIR\', _value=False, _checked=True), \' No Incluye\'),\n                                _class=\'honorarios\',\n                               ),\n                            DIV(LEGEND(\'Gastos de Viaje\'),\n                                DIV(INPUT(_type=\'radio\', _name=\'rbnGastos\', _value=True), \' Incluye\'),\n                                DIV(INPUT(_type=\'radio\', _name=\'rbnGastos\', _value=False, _checked=True), \' No Incluye\'),\n                                _class=\'honorarios\',\n                               ),\n                            DIV(LABEL(\'Forma de Pago\'), SPAN(\'En caso de ser pagos parciales indicar porcentajes o valores, productos y fechas previstas separados con punto y coma (;)\'), TEXTAREA(_name=\'formaPagoX\', _placeholder=\'Forma de Pago\', requires=IS_NOT_EMPTY())),\n                           ),\n                   FIELDSET(LEGEND(\'Datos Internos\'),\n                            DIV(LABEL(\'Fecha de Firma\'),INPUT(_name=\'fechaFirma\', _type=\'date\', requires=IS_NOT_EMPTY())),\n                            DIV(LABEL(\'Proyecto\'),INPUT(_name=\'proyecto\', _placeholder=\'Proyecto\', requires=IS_NOT_EMPTY())),\n                            DIV(LABEL(\'Fecha de Elaboracion\'),INPUT(_name=\'fechaElaboracionX\', _type=\'date\', requires=IS_NOT_EMPTY())),\n                           ),\n                   _class=\'columna\',\n                  ),\n               DIV(INPUT(_type=\'submit\',_value=\'Crear\', _class=\'btnEnviar\'))\n              )\n    if form1.accepts(request,session):\n        response.flash = \'form1 accepted\'\n    elif form1.errors:\n        response.flash = \'form1 has errors\'\n    if form2.accepts(request,session):\n        response.flash = \'form accepted\'\n    elif form2.errors:\n        response.flash = \'form has errors\'\n    return dict(form1=form1, form2=form2)\n\n@auth.requires_login()\ndef enmiendas():\n    form1=FORM(FIELDSET(LEGEND(\'Buscar por:\'),\n                        DIV(\n                            DIV(SELECT(\'N\xc3\xbamero de contrato\', \'C.I / RUC\', \'Proyecto\', _name=\'filtro\', requires=IS_NOT_EMPTY())),\n                            _class=\'columna\',\n                           ),\n                        DIV(\n                            DIV(INPUT(_name=\'filtro\', requires=IS_NOT_EMPTY())),\n                            _class=\'columna\',\n                           )\n                        #DIV(INPUT(_type=\'submit\',_value=\'BUSCAR\'))\n                       )\n              )\n    rows = {}\n    return dict(form=form,rows=rows)\n\n@auth.requires_login()\ndef contratos():\n    form1=FORM(FIELDSET(LEGEND(\'Contrato\'),\n                        DIV(\n                            DIV(LABEL(\'N\xc3\xbamero de Contrato\'),INPUT(_name=\'contrato\', _type=\'number\', _placeholder=\'N\xc3\xbamero de Contrato\', requires=IS_NOT_EMPTY())),\n                            DIV(INPUT(_type=\'submit\',_value=\'IR\')),\n                            _class=\'columna\',\n                           ),\n                        DIV(\n                            DIV(LABEL(\'Nombre Contratista\'),INPUT(_name=\'nombres\', _readonly=ON)),\n                            DIV(LABEL(\'Documento de Identidad\'),INPUT(_name=\'documentoId\', _readonly=ON)),\n                            DIV(LABEL(\'Fecha Contrato\'),INPUT(_name=\'fechaFirmaContrato\', _type=\'date\', _readonly=ON)),\n                            _class=\'columna\',\n                           )\n                       )\n              )\n    return dict(form=form,rows=rows)\n\n\n@auth.requires_membership("Super Admin")\ndef admin():\n    if request.args(0) == \'select\':\n        redirect(URL(\'tabla\',args=[request.args(1)]))\n    else:\n        tables = crud.tables()\n        return dict(tables = tables)\n\n@auth.requires_membership("Super Admin")\ndef tabla():\n    table=db[request.args(0)]\n    form = crud.update(table,request.args(1))\n    table.id.represent = lambda id, row:        A(\'Editar: \',id,_href=URL(args=(request.args(0),id)))\n    search, rows = crud.search(table)\n    return dict(form=form,search=search,rows=rows)\n\n@auth.requires_membership("Administrador de empresa")\ndef crear_usuarios():\n    for empresa in db(db.auth_user.id==auth.user.id).select(db.auth_user.f_empresa):\n        idEmpresa = empresa.f_empresa\n    table=db["auth_user"]\n    form = crud.update(table,request.args(1), fields=[\'id\', \'first_name\', \'last_name\', \'email\', \'password\'], hidden=dict(empresa=idEmpresa))\n    table.id.represent = lambda id, row:        A(\'Editar: \',id,_href=URL(args=("auth_user",id)))\n    search, rows = crud.search(table,query=(db.auth_user.f_empresa==idEmpresa), fields=[\'id\', \'first_name\', \'last_name\', \'email\'])\n    return dict(form=form,search=search,rows=rows)\n\nresponse._vars=response._caller(enmiendas)\n'
p7
sS'snapshot'
p8
(dp9
S'exception'
p10
(dp11
S'__hash__'
p12
S"<method-wrapper '__hash__' of exceptions.NameError object>"
p13
sS'__setattr__'
p14
S"<method-wrapper '__setattr__' of exceptions.NameError object>"
p15
sS'__reduce_ex__'
p16
S'<built-in method __reduce_ex__ of exceptions.NameError object>'
p17
sS'__getslice__'
p18
S"<method-wrapper '__getslice__' of exceptions.NameError object>"
p19
sS'__getitem__'
p20
S"<method-wrapper '__getitem__' of exceptions.NameError object>"
p21
sS'__setstate__'
p22
S'<built-in method __setstate__ of exceptions.NameError object>'
p23
sS'args'
p24
S'("global name \'form\' is not defined",)'
p25
sS'__reduce__'
p26
S'<built-in method __reduce__ of exceptions.NameError object>'
p27
sS'__str__'
p28
S"<method-wrapper '__str__' of exceptions.NameError object>"
p29
sS'__format__'
p30
S'<built-in method __format__ of exceptions.NameError object>'
p31
sS'__getattribute__'
p32
S"<method-wrapper '__getattribute__' of exceptions.NameError object>"
p33
sS'__class__'
p34
S"<type 'exceptions.NameError'>"
p35
sS'__unicode__'
p36
S'<built-in method __unicode__ of exceptions.NameError object>'
p37
sS'__delattr__'
p38
S"<method-wrapper '__delattr__' of exceptions.NameError object>"
p39
sS'__subclasshook__'
p40
S'<built-in method __subclasshook__ of type object>'
p41
sS'__repr__'
p42
S"<method-wrapper '__repr__' of exceptions.NameError object>"
p43
sS'__dict__'
p44
S'{}'
p45
sS'__sizeof__'
p46
S'<built-in method __sizeof__ of exceptions.NameError object>'
p47
sS'__doc__'
p48
S"'Name not found globally.'"
p49
sS'__init__'
p50
S"<method-wrapper '__init__' of exceptions.NameError object>"
p51
sS'__new__'
p52
S'<built-in method __new__ of type object>'
p53
ssS'evalue'
p54
S"global name 'form' is not defined"
p55
sS'request'
p56
cgluon.html
XML_unpickle
p57
(S'sj_\x00\x00<div><table><tr><td style="font-weight:bold;vertical-align:top;">ajax</td><td style="vertical-align:top;">:</td><td><div>False</div></td></tr><tr><td style="font-weight:bold;vertical-align:top;">application</td><td style="vertical-align:top;">:</td><td><div>gcontratos</div></td></tr><tr><td style="font-weight:bold;vertical-align:top;">args</td><td style="vertical-align:top;">:</td><td><div><table></table></div></td></tr><tr><td style="font-weight:bold;vertical-align:top;">cid</td><td style="vertical-align:top;">:</td><td><div>None</div></td></tr><tr><td style="font-weight:bold;vertical-align:top;">client</td><td style="vertical-align:top;">:</td><td><div>127.0.0.1</div></td></tr><tr><td style="font-weight:bold;vertical-align:top;">controller</td><td style="vertical-align:top;">:</td><td><div>default</div></td></tr><tr><td style="font-weight:bold;vertical-align:top;">cookies</td><td style="vertical-align:top;">:</td><td><div><table><tr><td style="font-weight:bold;vertical-align:top;">session_id_admin</td><td style="vertical-align:top;">:</td><td><div>127.0.0.1-2333ae32-eca5-4dd6-9de6-3ba355923cf4<table><tr><td style="font-weight:bold;vertical-align:top;">comment</td><td style="vertical-align:top;">:</td><td><div></div></td></tr><tr><td style="font-weight:bold;vertical-align:top;">domain</td><td style="vertical-align:top;">:</td><td><div></div></td></tr><tr><td style="font-weight:bold;vertical-align:top;">expires</td><td style="vertical-align:top;">:</td><td><div></div></td></tr><tr><td style="font-weight:bold;vertical-align:top;">httponly</td><td style="vertical-align:top;">:</td><td><div></div></td></tr><tr><td style="font-weight:bold;vertical-align:top;">max-age</td><td style="vertical-align:top;">:</td><td><div></div></td></tr><tr><td style="font-weight:bold;vertical-align:top;">path</td><td style="vertical-align:top;">:</td><td><div></div></td></tr><tr><td style="font-weight:bold;vertical-align:top;">secure</td><td style="vertical-align:top;">:</td><td><div></div></td></tr><tr><td style="font-weight:bold;vertical-align:top;">version</td><td style="vertical-align:top;">:</td><td><div></div></td></tr></table></div></td></tr><tr><td style="font-weight:bold;vertical-align:top;">session_id_gcontratos</td><td style="vertical-align:top;">:</td><td><div>127.0.0.1-b28081e7-5d44-439e-9abb-7b29606ece49<table><tr><td style="font-weight:bold;vertical-align:top;">comment</td><td style="vertical-align:top;">:</td><td><div></div></td></tr><tr><td style="font-weight:bold;vertical-align:top;">domain</td><td style="vertical-align:top;">:</td><td><div></div></td></tr><tr><td style="font-weight:bold;vertical-align:top;">expires</td><td style="vertical-align:top;">:</td><td><div></div></td></tr><tr><td style="font-weight:bold;vertical-align:top;">httponly</td><td style="vertical-align:top;">:</td><td><div></div></td></tr><tr><td style="font-weight:bold;vertical-align:top;">max-age</td><td style="vertical-align:top;">:</td><td><div></div></td></tr><tr><td style="font-weight:bold;vertical-align:top;">path</td><td style="vertical-align:top;">:</td><td><div></div></td></tr><tr><td style="font-weight:bold;vertical-align:top;">secure</td><td style="vertical-align:top;">:</td><td><div></div></td></tr><tr><td style="font-weight:bold;vertical-align:top;">version</td><td style="vertical-align:top;">:</td><td><div></div></td></tr></table></div></td></tr><tr><td style="font-weight:bold;vertical-align:top;">session_id_welcome</td><td style="vertical-align:top;">:</td><td><div>127.0.0.1-abfa6332-1faf-4e50-98c1-20e168484e3b<table><tr><td style="font-weight:bold;vertical-align:top;">comment</td><td style="vertical-align:top;">:</td><td><div></div></td></tr><tr><td style="font-weight:bold;vertical-align:top;">domain</td><td style="vertical-align:top;">:</td><td><div></div></td></tr><tr><td style="font-weight:bold;vertical-align:top;">expires</td><td style="vertical-align:top;">:</td><td><div></div></td></tr><tr><td style="font-weight:bold;vertical-align:top;">httponly</td><td style="vertical-align:top;">:</td><td><div></div></td></tr><tr><td style="font-weight:bold;vertical-align:top;">max-age</td><td style="vertical-align:top;">:</td><td><div></div></td></tr><tr><td style="font-weight:bold;vertical-align:top;">path</td><td style="vertical-align:top;">:</td><td><div></div></td></tr><tr><td style="font-weight:bold;vertical-align:top;">secure</td><td style="vertical-align:top;">:</td><td><div></div></td></tr><tr><td style="font-weight:bold;vertical-align:top;">version</td><td style="vertical-align:top;">:</td><td><div></div></td></tr></table></div></td></tr></table></div></td></tr><tr><td style="font-weight:bold;vertical-align:top;">env</td><td style="vertical-align:top;">:</td><td><div><table><tr><td style="font-weight:bold;vertical-align:top;">HTTP_ACCEPT</td><td style="vertical-align:top;">:</td><td><div>text/html,application/xhtml+xml,application/xml;q=0.9,image/webp,*/*;q=0.8</div></td></tr><tr><td style="font-weight:bold;vertical-align:top;">HTTP_ACCEPT_ENCODING</td><td style="vertical-align:top;">:</td><td><div>gzip, deflate, sdch</div></td></tr><tr><td style="font-weight:bold;vertical-align:top;">HTTP_ACCEPT_LANGUAGE</td><td style="vertical-align:top;">:</td><td><div>en-US,en;q=0.8,es;q=0.6,gl;q=0.4</div></td></tr><tr><td style="font-weight:bold;vertical-align:top;">HTTP_CACHE_CONTROL</td><td style="vertical-align:top;">:</td><td><div>max-age=0</div></td></tr><tr><td style="font-weight:bold;vertical-align:top;">HTTP_CONNECTION</td><td style="vertical-align:top;">:</td><td><div>keep-alive</div></td></tr><tr><td style="font-weight:bold;vertical-align:top;">HTTP_COOKIE</td><td style="vertical-align:top;">:</td><td><div>session_id_welcome=127.0.0.1-abfa6332-1faf-4e50-98c1-20e168484e3b; session_id_admin=127.0.0.1-2333ae32-eca5-4dd6-9de6-3ba355923cf4; session_id_gcontratos=127.0.0.1-b28081e7-5d44-439e-9abb-7b29606ece49</div></td></tr><tr><td style="font-weight:bold;vertical-align:top;">HTTP_HOST</td><td style="vertical-align:top;">:</td><td><div>127.0.0.1:8000</div></td></tr><tr><td style="font-weight:bold;vertical-align:top;">HTTP_REFERER</td><td style="vertical-align:top;">:</td><td><div>http://127.0.0.1:8000/gcontratos/default/nuevaEnmienda</div></td></tr><tr><td style="font-weight:bold;vertical-align:top;">HTTP_USER_AGENT</td><td style="vertical-align:top;">:</td><td><div>Mozilla/5.0 (Macintosh; Intel Mac OS X 10_10_3) AppleWebKit/537.36 (KHTML, like Gecko) Chrome/43.0.2357.124 Safari/537.36</div></td></tr><tr><td style="font-weight:bold;vertical-align:top;">PATH_INFO</td><td style="vertical-align:top;">:</td><td><div>/gcontratos/default/enmiendas</div></td></tr><tr><td style="font-weight:bold;vertical-align:top;">QUERY_STRING</td><td style="vertical-align:top;">:</td><td><div></div></td></tr><tr><td style="font-weight:bold;vertical-align:top;">REMOTE_ADDR</td><td style="vertical-align:top;">:</td><td><div>127.0.0.1</div></td></tr><tr><td style="font-weight:bold;vertical-align:top;">REMOTE_PORT</td><td style="vertical-align:top;">:</td><td><div>57626</div></td></tr><tr><td style="font-weight:bold;vertical-align:top;">REQUEST_METHOD</td><td style="vertical-align:top;">:</td><td><div>GET</div></td></tr><tr><td style="font-weight:bold;vertical-align:top;">SCRIPT_NAME</td><td style="vertical-align:top;">:</td><td><div></div></td></tr><tr><td style="font-weight:bold;vertical-align:top;">SERVER_NAME</td><td style="vertical-align:top;">:</td><td><div>Franciscos-MacBook-Pro.local</div></td></tr><tr><td style="font-weight:bold;vertical-align:top;">SERVER_PORT</td><td style="vertical-align:top;">:</td><td><div>8000</div></td></tr><tr><td style="font-weight:bold;vertical-align:top;">SERVER_PROTOCOL</td><td style="vertical-align:top;">:</td><td><div>HTTP/1.1</div></td></tr><tr><td style="font-weight:bold;vertical-align:top;">SERVER_SOFTWARE</td><td style="vertical-align:top;">:</td><td><div>Rocket 1.2.6</div></td></tr><tr><td style="font-weight:bold;vertical-align:top;">app_folders</td><td style="vertical-align:top;">:</td><td><div>set([&#x27;/Applications/web2py.app/Contents/Resources/applications/admin/&#x27;, &#x27;/Applications/web2py.app/Contents/Resources/applications/gcontratos/&#x27;, &#x27;/Applications/web2py.app/Contents/Resources/applications/welcome/&#x27;])</div></td></tr><tr><td style="font-weight:bold;vertical-align:top;">applications_parent</td><td style="vertical-align:top;">:</td><td><div>/Applications/web2py.app/Contents/Resources</div></td></tr><tr><td style="font-weight:bold;vertical-align:top;">cmd_args</td><td style="vertical-align:top;">:</td><td><div><table></table></div></td></tr><tr><td style="font-weight:bold;vertical-align:top;">cmd_options</td><td style="vertical-align:top;">:</td><td><div>&lt;Values at 0x10532aa28: {&#x27;verbose&#x27;: False, &#x27;ip&#x27;: &#x27;127.0.0.1&#x27;, &#x27;debuglevel&#x27;: 30, &#x27;with_scheduler&#x27;: False, &#x27;ips&#x27;: [&#x27;192.168.1.103&#x27;, &#x27;fe80::cae0:ebff:fe17:4365%en0&#x27;], &#x27;shutdown_timeout&#x27;: 5, &#x27;taskbar&#x27;: False, &#x27;with_coverage&#x27;: False, &#x27;scheduler_groups&#x27;: None, &#x27;port&#x27;: 8000, &#x27;maxthreads&#x27;: None, &#x27;softcron&#x27;: False, &#x27;server_name&#x27;: &#x27;Franciscos-MacBook-Pro.local&#x27;, &#x27;bpython&#x27;: False, &#x27;nogui&#x27;: False, &#x27;pid_filename&#x27;: &#x27;httpserver.pid&#x27;, &#x27;print_errors&#x27;: False, &#x27;extcron&#x27;: False, &#x27;runcron&#x27;: False, &#x27;run_system_tests&#x27;: False, &#x27;test&#x27;: None, &#x27;folder&#x27;: &#x27;/Applications/web2py.app/Contents/Resources&#x27;, &#x27;config&#x27;: &#x27;&#x27;, &#x27;minthreads&#x27;: None, &#x27;shell&#x27;: None, &#x27;run&#x27;: &#x27;&#x27;, &#x27;log_filename&#x27;: &#x27;httpserver.log&#x27;, &#x27;profiler_dir&#x27;: None, &#x27;args&#x27;: [&#x27;&#x27;], &#x27;socket_timeout&#x27;: 5, &#x27;ssl_ca_certificate&#x27;: None, &#x27;scheduler&#x27;: None, &#x27;interfaces&#x27;: None, &#x27;ssl_private_key&#x27;: &#x27;&#x27;, &#x27;gae&#x27;: None, &#x27;password&#x27;: &#x27;&lt;ask&gt;&#x27;, &#x27;request_queue_size&#x27;: 5, &#x27;ssl_certificate&#x27;: &#x27;&#x27;, &#x27;cronjob&#x27;: False, &#x27;numthreads&#x27;: None, &#x27;quiet&#x27;: False, &#x27;import_models&#x27;: False, &#x27;timeout&#x27;: 10, &#x27;plain&#x27;: False, &#x27;nobanner&#x27;: False}&gt;</div></td></tr><tr><td style="font-weight:bold;vertical-align:top;">db_sessions</td><td style="vertical-align:top;">:</td><td><div>set([])</div></td></tr><tr><td style="font-weight:bold;vertical-align:top;">debugging</td><td style="vertical-align:top;">:</td><td><div>True</div></td></tr><tr><td style="font-weight:bold;vertical-align:top;">gluon_parent</td><td style="vertical-align:top;">:</td><td><div>/Applications/web2py.app/Contents/Resources</div></td></tr><tr><td style="font-weight:bold;vertical-align:top;">http_accept</td><td style="vertical-align:top;">:</td><td><div>text/html,application/xhtml+xml,application/xml;q=0.9,image/webp,*/*;q=0.8</div></td></tr><tr><td style="font-weight:bold;vertical-align:top;">http_accept_encoding</td><td style="vertical-align:top;">:</td><td><div>gzip, deflate, sdch</div></td></tr><tr><td style="font-weight:bold;vertical-align:top;">http_accept_language</td><td style="vertical-align:top;">:</td><td><div>en-US,en;q=0.8,es;q=0.6,gl;q=0.4</div></td></tr><tr><td style="font-weight:bold;vertical-align:top;">http_cache_control</td><td style="vertical-align:top;">:</td><td><div>max-age=0</div></td></tr><tr><td style="font-weight:bold;vertical-align:top;">http_connection</td><td style="vertical-align:top;">:</td><td><div>keep-alive</div></td></tr><tr><td style="font-weight:bold;vertical-align:top;">http_cookie</td><td style="vertical-align:top;">:</td><td><div>session_id_welcome=127.0.0.1-abfa6332-1faf-4e50-98c1-20e168484e3b; session_id_admin=127.0.0.1-2333ae32-eca5-4dd6-9de6-3ba355923cf4; session_id_gcontratos=127.0.0.1-b28081e7-5d44-439e-9abb-7b29606ece49</div></td></tr><tr><td style="font-weight:bold;vertical-align:top;">http_host</td><td style="vertical-align:top;">:</td><td><div>127.0.0.1:8000</div></td></tr><tr><td style="font-weight:bold;vertical-align:top;">http_referer</td><td style="vertical-align:top;">:</td><td><div>http://127.0.0.1:8000/gcontratos/default/nuevaEnmienda</div></td></tr><tr><td style="font-weight:bold;vertical-align:top;">http_user_agent</td><td style="vertical-align:top;">:</td><td><div>Mozilla/5.0 (Macintosh; Intel Mac OS X 10_10_3) AppleWebKit/537.36 (KHTML, like Gecko) Chrome/43.0.2357.124 Safari/537.36</div></td></tr><tr><td style="font-weight:bold;vertical-align:top;">is_jython</td><td style="vertical-align:top;">:</td><td><div>False</div></td></tr><tr><td style="font-weight:bold;vertical-align:top;">is_pypy</td><td style="vertical-align:top;">:</td><td><div>False</div></td></tr><tr><td style="font-weight:bold;vertical-align:top;">is_source</td><td style="vertical-align:top;">:</td><td><div>True</div></td></tr><tr><td style="font-weight:bold;vertical-align:top;">local_hosts</td><td style="vertical-align:top;">:</td><td><div><table><tr><td><div>192.168.1.103</div></td></tr><tr><td><div>::ffff:127.0.0.1</div></td></tr><tr><td><div>::1</div></td></tr><tr><td><div>Franciscos-MacBook-Pro.local</div></td></tr><tr><td><div>127.0.0.1</div></td></tr><tr><td><div>fe80::cae0:ebff:fe17:4365%en0</div></td></tr></table></div></td></tr><tr><td style="font-weight:bold;vertical-align:top;">path_info</td><td style="vertical-align:top;">:</td><td><div>/gcontratos/default/enmiendas</div></td></tr><tr><td style="font-weight:bold;vertical-align:top;">query_string</td><td style="vertical-align:top;">:</td><td><div></div></td></tr><tr><td style="font-weight:bold;vertical-align:top;">remote_addr</td><td style="vertical-align:top;">:</td><td><div>127.0.0.1</div></td></tr><tr><td style="font-weight:bold;vertical-align:top;">remote_port</td><td style="vertical-align:top;">:</td><td><div>57626</div></td></tr><tr><td style="font-weight:bold;vertical-align:top;">request_method</td><td style="vertical-align:top;">:</td><td><div>GET</div></td></tr><tr><td style="font-weight:bold;vertical-align:top;">request_uri</td><td style="vertical-align:top;">:</td><td><div>/gcontratos/default/enmiendas</div></td></tr><tr><td style="font-weight:bold;vertical-align:top;">script_name</td><td style="vertical-align:top;">:</td><td><div></div></td></tr><tr><td style="font-weight:bold;vertical-align:top;">server_name</td><td style="vertical-align:top;">:</td><td><div>Franciscos-MacBook-Pro.local</div></td></tr><tr><td style="font-weight:bold;vertical-align:top;">server_port</td><td style="vertical-align:top;">:</td><td><div>8000</div></td></tr><tr><td style="font-weight:bold;vertical-align:top;">server_protocol</td><td style="vertical-align:top;">:</td><td><div>HTTP/1.1</div></td></tr><tr><td style="font-weight:bold;vertical-align:top;">server_software</td><td style="vertical-align:top;">:</td><td><div>Rocket 1.2.6</div></td></tr><tr><td style="font-weight:bold;vertical-align:top;">web2py_path</td><td style="vertical-align:top;">:</td><td><div>/Applications/web2py.app/Contents/Resources</div></td></tr><tr><td style="font-weight:bold;vertical-align:top;">web2py_version</td><td style="vertical-align:top;">:</td><td><div>2.10.3-stable+timestamp.2015.04.02.21.42.07</div></td></tr><tr><td style="font-weight:bold;vertical-align:top;">wsgi.errors</td><td style="vertical-align:top;">:</td><td><div>&lt;open file &#x27;&lt;stderr&gt;&#x27;, mode &#x27;w&#x27; at 0x10039b270&gt;</div></td></tr><tr><td style="font-weight:bold;vertical-align:top;">wsgi.file_wrapper</td><td style="vertical-align:top;">:</td><td><div>&lt;class wsgiref.util.FileWrapper at 0x104f96c18&gt;</div></td></tr><tr><td style="font-weight:bold;vertical-align:top;">wsgi.input</td><td style="vertical-align:top;">:</td><td><div>&lt;socket._fileobject object at 0x110698750&gt;</div></td></tr><tr><td style="font-weight:bold;vertical-align:top;">wsgi.multiprocess</td><td style="vertical-align:top;">:</td><td><div>False</div></td></tr><tr><td style="font-weight:bold;vertical-align:top;">wsgi.multithread</td><td style="vertical-align:top;">:</td><td><div>True</div></td></tr><tr><td style="font-weight:bold;vertical-align:top;">wsgi.run_once</td><td style="vertical-align:top;">:</td><td><div>False</div></td></tr><tr><td style="font-weight:bold;vertical-align:top;">wsgi.url_scheme</td><td style="vertical-align:top;">:</td><td><div>http</div></td></tr><tr><td style="font-weight:bold;vertical-align:top;">wsgi.version</td><td style="vertical-align:top;">:</td><td><div><table><tr><td><div>1</div></td></tr><tr><td><div>0</div></td></tr></table></div></td></tr><tr><td style="font-weight:bold;vertical-align:top;">wsgi_errors</td><td style="vertical-align:top;">:</td><td><div>&lt;open file &#x27;&lt;stderr&gt;&#x27;, mode &#x27;w&#x27; at 0x10039b270&gt;</div></td></tr><tr><td style="font-weight:bold;vertical-align:top;">wsgi_file_wrapper</td><td style="vertical-align:top;">:</td><td><div>&lt;class wsgiref.util.FileWrapper at 0x104f96c18&gt;</div></td></tr><tr><td style="font-weight:bold;vertical-align:top;">wsgi_input</td><td style="vertical-align:top;">:</td><td><div>&lt;socket._fileobject object at 0x110698750&gt;</div></td></tr><tr><td style="font-weight:bold;vertical-align:top;">wsgi_multiprocess</td><td style="vertical-align:top;">:</td><td><div>False</div></td></tr><tr><td style="font-weight:bold;vertical-align:top;">wsgi_multithread</td><td style="vertical-align:top;">:</td><td><div>True</div></td></tr><tr><td style="font-weight:bold;vertical-align:top;">wsgi_run_once</td><td style="vertical-align:top;">:</td><td><div>False</div></td></tr><tr><td style="font-weight:bold;vertical-align:top;">wsgi_url_scheme</td><td style="vertical-align:top;">:</td><td><div>http</div></td></tr><tr><td style="font-weight:bold;vertical-align:top;">wsgi_version</td><td style="vertical-align:top;">:</td><td><div><table><tr><td><div>1</div></td></tr><tr><td><div>0</div></td></tr></table></div></td></tr></table></div></td></tr><tr><td style="font-weight:bold;vertical-align:top;">extension</td><td style="vertical-align:top;">:</td><td><div>html</div></td></tr><tr><td style="font-weight:bold;vertical-align:top;">folder</td><td style="vertical-align:top;">:</td><td><div>/Applications/web2py.app/Contents/Resources/applications/gcontratos/</div></td></tr><tr><td style="font-weight:bold;vertical-align:top;">function</td><td style="vertical-align:top;">:</td><td><div>enmiendas</div></td></tr><tr><td style="font-weight:bold;vertical-align:top;">global_settings</td><td style="vertical-align:top;">:</td><td><div><table><tr><td style="font-weight:bold;vertical-align:top;">app_folders</td><td style="vertical-align:top;">:</td><td><div>set([&#x27;/Applications/web2py.app/Contents/Resources/applications/admin/&#x27;, &#x27;/Applications/web2py.app/Contents/Resources/applications/gcontratos/&#x27;, &#x27;/Applications/web2py.app/Contents/Resources/applications/welcome/&#x27;])</div></td></tr><tr><td style="font-weight:bold;vertical-align:top;">applications_parent</td><td style="vertical-align:top;">:</td><td><div>/Applications/web2py.app/Contents/Resources</div></td></tr><tr><td style="font-weight:bold;vertical-align:top;">cmd_args</td><td style="vertical-align:top;">:</td><td><div><table></table></div></td></tr><tr><td style="font-weight:bold;vertical-align:top;">cmd_options</td><td style="vertical-align:top;">:</td><td><div>&lt;Values at 0x10532aa28: {&#x27;verbose&#x27;: False, &#x27;ip&#x27;: &#x27;127.0.0.1&#x27;, &#x27;debuglevel&#x27;: 30, &#x27;with_scheduler&#x27;: False, &#x27;ips&#x27;: [&#x27;192.168.1.103&#x27;, &#x27;fe80::cae0:ebff:fe17:4365%en0&#x27;], &#x27;shutdown_timeout&#x27;: 5, &#x27;taskbar&#x27;: False, &#x27;with_coverage&#x27;: False, &#x27;scheduler_groups&#x27;: None, &#x27;port&#x27;: 8000, &#x27;maxthreads&#x27;: None, &#x27;softcron&#x27;: False, &#x27;server_name&#x27;: &#x27;Franciscos-MacBook-Pro.local&#x27;, &#x27;bpython&#x27;: False, &#x27;nogui&#x27;: False, &#x27;pid_filename&#x27;: &#x27;httpserver.pid&#x27;, &#x27;print_errors&#x27;: False, &#x27;extcron&#x27;: False, &#x27;runcron&#x27;: False, &#x27;run_system_tests&#x27;: False, &#x27;test&#x27;: None, &#x27;folder&#x27;: &#x27;/Applications/web2py.app/Contents/Resources&#x27;, &#x27;config&#x27;: &#x27;&#x27;, &#x27;minthreads&#x27;: None, &#x27;shell&#x27;: None, &#x27;run&#x27;: &#x27;&#x27;, &#x27;log_filename&#x27;: &#x27;httpserver.log&#x27;, &#x27;profiler_dir&#x27;: None, &#x27;args&#x27;: [&#x27;&#x27;], &#x27;socket_timeout&#x27;: 5, &#x27;ssl_ca_certificate&#x27;: None, &#x27;scheduler&#x27;: None, &#x27;interfaces&#x27;: None, &#x27;ssl_private_key&#x27;: &#x27;&#x27;, &#x27;gae&#x27;: None, &#x27;password&#x27;: &#x27;&lt;ask&gt;&#x27;, &#x27;request_queue_size&#x27;: 5, &#x27;ssl_certificate&#x27;: &#x27;&#x27;, &#x27;cronjob&#x27;: False, &#x27;numthreads&#x27;: None, &#x27;quiet&#x27;: False, &#x27;import_models&#x27;: False, &#x27;timeout&#x27;: 10, &#x27;plain&#x27;: False, &#x27;nobanner&#x27;: False}&gt;</div></td></tr><tr><td style="font-weight:bold;vertical-align:top;">db_sessions</td><td style="vertical-align:top;">:</td><td><div>set([])</div></td></tr><tr><td style="font-weight:bold;vertical-align:top;">debugging</td><td style="vertical-align:top;">:</td><td><div>True</div></td></tr><tr><td style="font-weight:bold;vertical-align:top;">gluon_parent</td><td style="vertical-align:top;">:</td><td><div>/Applications/web2py.app/Contents/Resources</div></td></tr><tr><td style="font-weight:bold;vertical-align:top;">is_jython</td><td style="vertical-align:top;">:</td><td><div>False</div></td></tr><tr><td style="font-weight:bold;vertical-align:top;">is_pypy</td><td style="vertical-align:top;">:</td><td><div>False</div></td></tr><tr><td style="font-weight:bold;vertical-align:top;">is_source</td><td style="vertical-align:top;">:</td><td><div>True</div></td></tr><tr><td style="font-weight:bold;vertical-align:top;">local_hosts</td><td style="vertical-align:top;">:</td><td><div><table><tr><td><div>192.168.1.103</div></td></tr><tr><td><div>::ffff:127.0.0.1</div></td></tr><tr><td><div>::1</div></td></tr><tr><td><div>Franciscos-MacBook-Pro.local</div></td></tr><tr><td><div>127.0.0.1</div></td></tr><tr><td><div>fe80::cae0:ebff:fe17:4365%en0</div></td></tr></table></div></td></tr><tr><td style="font-weight:bold;vertical-align:top;">web2py_version</td><td style="vertical-align:top;">:</td><td><div>2.10.3-stable+timestamp.2015.04.02.21.42.07</div></td></tr></table></div></td></tr><tr><td style="font-weight:bold;vertical-align:top;">is_https</td><td style="vertical-align:top;">:</td><td><div>False</div></td></tr><tr><td style="font-weight:bold;vertical-align:top;">is_local</td><td style="vertical-align:top;">:</td><td><div>True</div></td></tr><tr><td style="font-weight:bold;vertical-align:top;">is_restful</td><td style="vertical-align:top;">:</td><td><div>False</div></td></tr><tr><td style="font-weight:bold;vertical-align:top;">is_sheduler</td><td style="vertical-align:top;">:</td><td><div>None</div></td></tr><tr><td style="font-weight:bold;vertical-align:top;">is_shell</td><td style="vertical-align:top;">:</td><td><div>None</div></td></tr><tr><td style="font-weight:bold;vertical-align:top;">now</td><td style="vertical-align:top;">:</td><td><div>datetime.datetime(2015, 6, 10, 16, 59, 22, 655)</div></td></tr><tr><td style="font-weight:bold;vertical-align:top;">raw_args</td><td style="vertical-align:top;">:</td><td><div></div></td></tr><tr><td style="font-weight:bold;vertical-align:top;">raw_extension</td><td style="vertical-align:top;">:</td><td><div>None</div></td></tr><tr><td style="font-weight:bold;vertical-align:top;">url</td><td style="vertical-align:top;">:</td><td><div>/gcontratos/default/enmiendas</div></td></tr><tr><td style="font-weight:bold;vertical-align:top;">utcnow</td><td style="vertical-align:top;">:</td><td><div>datetime.datetime(2015, 6, 10, 21, 59, 22, 664)</div></td></tr><tr><td style="font-weight:bold;vertical-align:top;">uuid</td><td style="vertical-align:top;">:</td><td><div>gcontratos/127.0.0.1.2015-06-10.16-59-22.a3870136-86e1-4df0-8aa0-bdbe8342b547</div></td></tr><tr><td style="font-weight:bold;vertical-align:top;">wsgi</td><td style="vertical-align:top;">:</td><td><div>&lt;gluon.main.LazyWSGI object at 0x1106552d0&gt;</div></td></tr></table></div>'
tRp58
sS'frames'
p59
(lp60
(dp61
S'file'
p62
S'/Applications/web2py.app/Contents/Resources/gluon/restricted.py'
p63
sS'dump'
p64
(dp65
sS'lnum'
p66
I227
sS'lines'
p67
(dp68
I224
S'            ccode = code'
p69
sI225
S'        else:'
p70
sI226
S'            ccode = compile2(code, layer)'
p71
sI227
S'        exec ccode in environment'
p72
sI228
S'    except HTTP:'
p73
sI229
S'        raise'
p74
sI230
S'    except RestrictedError:'
p75
sI231
S'        # do not encapsulate (obfuscate) the original RestrictedError'
p76
sI222
S'    try:'
p77
sI223
S'        if isinstance(code, types.CodeType):'
p78
ssS'call'
p79
S"(code='# -*- coding: utf-8 -*-\\n### required - do no del...ows)\\n\\nresponse._vars=response._caller(enmiendas)\\n', environment={'A': <class 'gluon.html.A'>, 'ANY_OF': <class 'gluon.validators.ANY_OF'>, 'ASSIGNJS': <function ASSIGNJS>, 'Auth': <class 'gluon.tools.Auth'>, 'B': <class 'gluon.html.B'>, 'BEAUTIFY': <class 'gluon.html.BEAUTIFY'>, 'BODY': <class 'gluon.html.BODY'>, 'BR': <class 'gluon.html.BR'>, 'BUTTON': <class 'gluon.html.BUTTON'>, 'CAT': <class 'gluon.html.CAT'>, ...}, layer='/Applications/web2py.app/Contents/Resources/applications/gcontratos/controllers/default.py')"
p80
sS'func'
p81
S'restricted'
p82
sa(dp83
g62
S'/Applications/web2py.app/Contents/Resources/applications/gcontratos/controllers/default.py'
p84
sg64
(dp85
sg66
I284
sg67
(dp86
I273
S''
sI274
S'@auth.requires_membership("Administrador de empresa")'
p87
sI275
S'def crear_usuarios():'
p88
sI276
S'    for empresa in db(db.auth_user.id==auth.user.id).select(db.auth_user.f_empresa):'
p89
sI277
S'        idEmpresa = empresa.f_empresa'
p90
sI278
S'    table=db["auth_user"]'
p91
sI279
S"    form = crud.update(table,request.args(1), fields=['id', 'first_name', 'last_name', 'email', 'password'], hidden=dict(empresa=idEmpresa))"
p92
sI280
S'    table.id.represent = lambda id, row:        A(\'Editar: \',id,_href=URL(args=("auth_user",id)))'
p93
sI281
S"    search, rows = crud.search(table,query=(db.auth_user.f_empresa==idEmpresa), fields=['id', 'first_name', 'last_name', 'email'])"
p94
sI282
S'    return dict(form=form,search=search,rows=rows)'
p95
ssg79
S'()'
p96
sg81
S'<module>'
p97
sa(dp98
g62
S'/Applications/web2py.app/Contents/Resources/gluon/globals.py'
p99
sg64
(dp100
sg66
I393
sg67
(dp101
I388
S"        self.flash = ''            # used by the default view layout"
p102
sI389
S'        self.meta = Storage()      # used by web2py_ajax.html'
p103
sI390
S'        self.menu = []             # used by the default view layout'
p104
sI391
S'        self.files = []            # used by web2py_ajax.html'
p105
sI392
S'        self._vars = None'
p106
sI393
S'        self._caller = lambda f: f()'
p107
sI394
S'        self._view_environment = None'
p108
sI395
S'        self._custom_commit = None'
p109
sI396
S'        self._custom_rollback = None'
p110
sI397
S"        self.generic_patterns = ['*']"
p111
ssg79
S'(f=<function enmiendas>)'
p112
sg81
S'<lambda>'
p113
sa(dp114
g62
S'/Applications/web2py.app/Contents/Resources/gluon/tools.py'
p115
sg64
(dp116
sg66
I3440
sg67
(dp117
I3435
S'                    flag = condition'
p118
sI3436
S'                if not flag:'
p119
sI3437
S'                    current.session.flash = self.messages.access_denied'
p120
sI3438
S'                    return call_or_redirect('
p121
sI3439
S'                        self.settings.on_failed_authorization)'
p122
sI3440
S'                return action(*a, **b)'
p123
sI3441
S'            f.__doc__ = action.__doc__'
p124
sI3442
S'            f.__name__ = action.__name__'
p125
sI3443
S'            f.__dict__.update(action.__dict__)'
p126
sI3444
S'            return f'
p127
ssg79
S'(*a=(), **b={})'
p128
sg81
S'f'
sa(dp129
g62
S'/Applications/web2py.app/Contents/Resources/applications/gcontratos/controllers/default.py'
p130
sg64
(dp131
sg66
I237
sg67
(dp132
I232
S'                           )'
p133
sI233
S"                        #DIV(INPUT(_type='submit',_value='BUSCAR'))"
p134
sI234
S'                       )'
p135
sI235
S'              )'
p136
sI236
S'    rows = {}'
p137
sI237
S'    return dict(form=form,rows=rows)'
p138
sI238
S''
sI239
S'@auth.requires_login()'
p139
sI240
S'def contratos():'
p140
sI241
S"    form1=FORM(FIELDSET(LEGEND('Contrato'),"
p141
ssg79
S'()'
p142
sg81
S'enmiendas'
p143
sasS'pyver'
p144
S'Python 2.7.3: /Applications/web2py.app/Contents/MacOS/python (prefix: /Applications/web2py.app/Contents/Resources)'
p145
sS'session'
p146
g57
(S's\xe9\x08\x00\x00<div><table><tr><td style="font-weight:bold;vertical-align:top;">auth</td><td style="vertical-align:top;">:</td><td><div><table><tr><td style="font-weight:bold;vertical-align:top;">expiration</td><td style="vertical-align:top;">:</td><td><div>3600</div></td></tr><tr><td style="font-weight:bold;vertical-align:top;">hmac_key</td><td style="vertical-align:top;">:</td><td><div>7add6e30-6960-42ea-bd4a-4515e70ffdef</div></td></tr><tr><td style="font-weight:bold;vertical-align:top;">last_visit</td><td style="vertical-align:top;">:</td><td><div>datetime.datetime(2015, 6, 10, 16, 54, 16, 537461)</div></td></tr><tr><td style="font-weight:bold;vertical-align:top;">remember_me</td><td style="vertical-align:top;">:</td><td><div>False</div></td></tr><tr><td style="font-weight:bold;vertical-align:top;">user</td><td style="vertical-align:top;">:</td><td><div><table><tr><td style="font-weight:bold;vertical-align:top;">email</td><td style="vertical-align:top;">:</td><td><div>jperez@fake.com</div></td></tr><tr><td style="font-weight:bold;vertical-align:top;">f_empresa</td><td style="vertical-align:top;">:</td><td><div>0L</div></td></tr><tr><td style="font-weight:bold;vertical-align:top;">first_name</td><td style="vertical-align:top;">:</td><td><div>Juan</div></td></tr><tr><td style="font-weight:bold;vertical-align:top;">id</td><td style="vertical-align:top;">:</td><td><div>3L</div></td></tr><tr><td style="font-weight:bold;vertical-align:top;">last_name</td><td style="vertical-align:top;">:</td><td><div>Perez</div></td></tr><tr><td style="font-weight:bold;vertical-align:top;">registration_id</td><td style="vertical-align:top;">:</td><td><div></div></td></tr><tr><td style="font-weight:bold;vertical-align:top;">registration_key</td><td style="vertical-align:top;">:</td><td><div></div></td></tr><tr><td style="font-weight:bold;vertical-align:top;">reset_password_key</td><td style="vertical-align:top;">:</td><td><div></div></td></tr></table></div></td></tr><tr><td style="font-weight:bold;vertical-align:top;">user_groups</td><td style="vertical-align:top;">:</td><td><div><table></table></div></td></tr></table></div></td></tr><tr><td style="font-weight:bold;vertical-align:top;">flash</td><td style="vertical-align:top;">:</td><td><div>None</div></td></tr></table></div>'
tRp147
sS'etype'
p148
S"<type 'exceptions.NameError'>"
p149
sS'date'
p150
S'Wed Jun 10 16:59:22 2015'
p151
sS'response'
p152
g57
(S's\xdb \x00\x00<div><table><tr><td style="font-weight:bold;vertical-align:top;">body</td><td style="vertical-align:top;">:</td><td><div>&lt;cStringIO.StringO object at 0x110657b58&gt;</div></td></tr><tr><td style="font-weight:bold;vertical-align:top;">cookies</td><td style="vertical-align:top;">:</td><td><div><table><tr><td style="font-weight:bold;vertical-align:top;">session_id_gcontratos</td><td style="vertical-align:top;">:</td><td><div>127.0.0.1-b28081e7-5d44-439e-9abb-7b29606ece49<table><tr><td style="font-weight:bold;vertical-align:top;">comment</td><td style="vertical-align:top;">:</td><td><div></div></td></tr><tr><td style="font-weight:bold;vertical-align:top;">domain</td><td style="vertical-align:top;">:</td><td><div></div></td></tr><tr><td style="font-weight:bold;vertical-align:top;">expires</td><td style="vertical-align:top;">:</td><td><div></div></td></tr><tr><td style="font-weight:bold;vertical-align:top;">httponly</td><td style="vertical-align:top;">:</td><td><div></div></td></tr><tr><td style="font-weight:bold;vertical-align:top;">max-age</td><td style="vertical-align:top;">:</td><td><div></div></td></tr><tr><td style="font-weight:bold;vertical-align:top;">path</td><td style="vertical-align:top;">:</td><td><div>/</div></td></tr><tr><td style="font-weight:bold;vertical-align:top;">secure</td><td style="vertical-align:top;">:</td><td><div></div></td></tr><tr><td style="font-weight:bold;vertical-align:top;">version</td><td style="vertical-align:top;">:</td><td><div></div></td></tr></table></div></td></tr></table></div></td></tr><tr><td style="font-weight:bold;vertical-align:top;">delimiters</td><td style="vertical-align:top;">:</td><td><div><table><tr><td><div>{{</div></td></tr><tr><td><div>}}</div></td></tr></table></div></td></tr><tr><td style="font-weight:bold;vertical-align:top;">files</td><td style="vertical-align:top;">:</td><td><div><table></table></div></td></tr><tr><td style="font-weight:bold;vertical-align:top;">flash</td><td style="vertical-align:top;">:</td><td><div></div></td></tr><tr><td style="font-weight:bold;vertical-align:top;">form_label_separator</td><td style="vertical-align:top;">:</td><td><div>: </div></td></tr><tr><td style="font-weight:bold;vertical-align:top;">formstyle</td><td style="vertical-align:top;">:</td><td><div>table3cols</div></td></tr><tr><td style="font-weight:bold;vertical-align:top;">generic_patterns</td><td style="vertical-align:top;">:</td><td><div><table><tr><td><div>*</div></td></tr></table></div></td></tr><tr><td style="font-weight:bold;vertical-align:top;">headers</td><td style="vertical-align:top;">:</td><td><div><table><tr><td style="font-weight:bold;vertical-align:top;">X-Powered-By</td><td style="vertical-align:top;">:</td><td><div>web2py</div></td></tr></table></div></td></tr><tr><td style="font-weight:bold;vertical-align:top;">menu</td><td style="vertical-align:top;">:</td><td><div><table><tr><td><div><table><tr><td><div>Index</div></td></tr><tr><td><div>False</div></td></tr><tr><td><div>/gcontratos/default/index</div></td></tr><tr><td><div><table></table></div></td></tr></table></div></td></tr><tr><td><div><table><tr><td><div>Crear Contrato</div></td></tr><tr><td><div>False</div></td></tr><tr><td><div></div></td></tr><tr><td><div><table><tr><td><div><table><tr><td><div>Persona</div></td></tr><tr><td><div>False</div></td></tr><tr><td><div>/gcontratos/default/nuevoConPersona</div></td></tr></table></div></td></tr><tr><td><div><table><tr><td><div>Empresa</div></td></tr><tr><td><div>False</div></td></tr><tr><td><div>/gcontratos/default/nuevoConEmpresa</div></td></tr></table></div></td></tr></table></div></td></tr></table></div></td></tr><tr><td><div><table><tr><td><div>Enmendar Contrato</div></td></tr><tr><td><div>False</div></td></tr><tr><td><div>/gcontratos/default/nuevaEnmienda</div></td></tr><tr><td><div><table></table></div></td></tr></table></div></td></tr><tr><td><div><table><tr><td><div>Consultar</div></td></tr><tr><td><div>False</div></td></tr><tr><td><div></div></td></tr><tr><td><div><table><tr><td><div><table><tr><td><div>Contratos</div></td></tr><tr><td><div>False</div></td></tr><tr><td><div>/gcontratos/default/contratos</div></td></tr></table></div></td></tr><tr><td><div><table><tr><td><div>Enmiendas</div></td></tr><tr><td><div>True</div></td></tr><tr><td><div>/gcontratos/default/enmiendas</div></td></tr></table></div></td></tr></table></div></td></tr></table></div></td></tr></table></div></td></tr><tr><td style="font-weight:bold;vertical-align:top;">meta</td><td style="vertical-align:top;">:</td><td><div><table><tr><td style="font-weight:bold;vertical-align:top;">author</td><td style="vertical-align:top;">:</td><td><div> &lt;aaruiz@udlanet.ec&gt;</div></td></tr><tr><td style="font-weight:bold;vertical-align:top;">description</td><td style="vertical-align:top;">:</td><td><div></div></td></tr><tr><td style="font-weight:bold;vertical-align:top;">keywords</td><td style="vertical-align:top;">:</td><td><div></div></td></tr></table></div></td></tr><tr><td style="font-weight:bold;vertical-align:top;">models_to_run</td><td style="vertical-align:top;">:</td><td><div><table><tr><td><div>^\\w+\\.py$</div></td></tr><tr><td><div>^default/\\w+\\.py$</div></td></tr><tr><td><div>^default/enmiendas/\\w+\\.py$</div></td></tr></table></div></td></tr><tr><td style="font-weight:bold;vertical-align:top;">postprocessing</td><td style="vertical-align:top;">:</td><td><div><table></table></div></td></tr><tr><td style="font-weight:bold;vertical-align:top;">session_client</td><td style="vertical-align:top;">:</td><td><div>127.0.0.1</div></td></tr><tr><td style="font-weight:bold;vertical-align:top;">session_cookie_compression_level</td><td style="vertical-align:top;">:</td><td><div>None</div></td></tr><tr><td style="font-weight:bold;vertical-align:top;">session_cookie_expires</td><td style="vertical-align:top;">:</td><td><div>None</div></td></tr><tr><td style="font-weight:bold;vertical-align:top;">session_cookie_key</td><td style="vertical-align:top;">:</td><td><div>None</div></td></tr><tr><td style="font-weight:bold;vertical-align:top;">session_data_name</td><td style="vertical-align:top;">:</td><td><div>session_data_gcontratos</div></td></tr><tr><td style="font-weight:bold;vertical-align:top;">session_file</td><td style="vertical-align:top;">:</td><td><div>&lt;open file &#x27;/Applications/web2py.app/Contents/Resources/applications/gcontratos/sessions/14d/0f2/127.0.0.1-b28081e7-5d44-439e-9abb-7b29606ece49&#x27;, mode &#x27;rb+&#x27; at 0x11027eed0&gt;</div></td></tr><tr><td style="font-weight:bold;vertical-align:top;">session_filename</td><td style="vertical-align:top;">:</td><td><div>/Applications/web2py.app/Contents/Resources/applications/gcontratos/sessions/127.0.0.1-b28081e7-5d44-439e-9abb-7b29606ece49</div></td></tr><tr><td style="font-weight:bold;vertical-align:top;">session_hash</td><td style="vertical-align:top;">:</td><td><div>53532eb0d443394c0cd976ce619d3877</div></td></tr><tr><td style="font-weight:bold;vertical-align:top;">session_id</td><td style="vertical-align:top;">:</td><td><div>127.0.0.1-b28081e7-5d44-439e-9abb-7b29606ece49</div></td></tr><tr><td style="font-weight:bold;vertical-align:top;">session_id_name</td><td style="vertical-align:top;">:</td><td><div>session_id_gcontratos</div></td></tr><tr><td style="font-weight:bold;vertical-align:top;">session_locked</td><td style="vertical-align:top;">:</td><td><div>True</div></td></tr><tr><td style="font-weight:bold;vertical-align:top;">session_masterapp</td><td style="vertical-align:top;">:</td><td><div>gcontratos</div></td></tr><tr><td style="font-weight:bold;vertical-align:top;">session_new</td><td style="vertical-align:top;">:</td><td><div>False</div></td></tr><tr><td style="font-weight:bold;vertical-align:top;">session_storage_type</td><td style="vertical-align:top;">:</td><td><div>file</div></td></tr><tr><td style="font-weight:bold;vertical-align:top;">status</td><td style="vertical-align:top;">:</td><td><div>200</div></td></tr><tr><td style="font-weight:bold;vertical-align:top;">subtitle</td><td style="vertical-align:top;">:</td><td><div></div></td></tr><tr><td style="font-weight:bold;vertical-align:top;">title</td><td style="vertical-align:top;">:</td><td><div>Generador de Contratos</div></td></tr><tr><td style="font-weight:bold;vertical-align:top;">view</td><td style="vertical-align:top;">:</td><td><div>default/enmiendas.html</div></td></tr></table></div>'
tRp153
sS'locals'
p154
(dp155
S'form1'
p156
S'<gluon.html.FORM object>'
p157
sS'rows'
p158
g45
sssS'traceback'
p159
S'Traceback (most recent call last):\n  File "/Applications/web2py.app/Contents/Resources/gluon/restricted.py", line 227, in restricted\n  File "/Applications/web2py.app/Contents/Resources/applications/gcontratos/controllers/default.py", line 284, in <module>\n  File "/Applications/web2py.app/Contents/Resources/gluon/globals.py", line 393, in <lambda>\n  File "/Applications/web2py.app/Contents/Resources/gluon/tools.py", line 3440, in f\n  File "/Applications/web2py.app/Contents/Resources/applications/gcontratos/controllers/default.py", line 237, in enmiendas\nNameError: global name \'form\' is not defined\n'
p160
s.