(dp1
S'output'
p2
S'<type \'exceptions.RuntimeError\'> Failure to connect, tried 5 times:\nTraceback (most recent call last):\n  File "/Applications/web2py.app/Contents/Resources/gluon/packages/dal/pydal/base.py", line 434, in __init__\n  File "/Applications/web2py.app/Contents/Resources/gluon/packages/dal/pydal/adapters/base.py", line 53, in __call__\n  File "/Applications/web2py.app/Contents/Resources/gluon/packages/dal/pydal/adapters/mysql.py", line 132, in __init__\n  File "/Applications/web2py.app/Contents/Resources/gluon/packages/dal/pydal/connection.py", line 126, in reconnect\n  File "/Applications/web2py.app/Contents/Resources/gluon/packages/dal/pydal/adapters/mysql.py", line 130, in connector\n  File "/Applications/web2py.app/Contents/Resources/gluon/contrib/pymysql/__init__.py", line 93, in Connect\n  File "/Applications/web2py.app/Contents/Resources/gluon/contrib/pymysql/connections.py", line 575, in __init__\n  File "/Applications/web2py.app/Contents/Resources/gluon/contrib/pymysql/connections.py", line 743, in _connect\nOperationalError: (2003, "Can\'t connect to MySQL server on \'localhost\' (61)")\n'
p3
sS'layer'
p4
S'/Applications/web2py.app/Contents/Resources/applications/gcontratos/models/db.py'
p5
sS'code'
p6
S"# -*- coding: utf-8 -*-\n\n#########################################################################\n## This scaffolding model makes your app work on Google App Engine too\n## File is released under public domain and you can use without limitations\n#########################################################################\n\n## if SSL/HTTPS is properly configured and you want all HTTP requests to\n## be redirected to HTTPS, uncomment the line below:\n# request.requires_https()\n\nif not request.env.web2py_runtime_gae:\n    ## if NOT running on Google App Engine use SQLite or other DB\n    db = DAL('mysql://root@localhost/gcontratos',pool_size=1,check_reserved=['all'], lazy_tables=True)\nelse:\n    ## connect to Google BigTable (optional 'google:datastore://namespace')\n    db = DAL('google:datastore+ndb')\n    ## store sessions and tickets there\n    session.connect(request, response, db=db)\n    ## or store session in Memcache, Redis, etc.\n    ## from gluon.contrib.memdb import MEMDB\n    ## from google.appengine.api.memcache import Client\n    ## session.connect(request, response, db = MEMDB(Client()))\n\n## by default give a view/generic.extension to all actions from localhost\n## none otherwise. a pattern can be 'controller/function.extension'\nresponse.generic_patterns = ['*'] if request.is_local else []\n\n## (optional) optimize handling of static files\n# response.optimize_css = 'concat,minify,inline'\n# response.optimize_js = 'concat,minify,inline'\n## (optional) static assets folder versioning\n# response.static_version = '0.0.0'\n#########################################################################\n## Here is sample code if you need for\n## - email capabilities\n## - authentication (registration, login, logout, ... )\n## - authorization (role based authorization)\n## - services (xml, csv, json, xmlrpc, jsonrpc, amf, rss)\n## - old style crud actions\n## (more options discussed in gluon/tools.py)\n#########################################################################\n\nfrom gluon.tools import Auth, Crud, Service, PluginManager\n\nauth = Auth(db)\nservice = Service()\nplugins = PluginManager()\ncrud = Crud(db);\n\n## create all tables needed by auth if not custom tables\nauth.settings.extra_fields['auth_user']= [\n\tField('f_empresa', type='reference t_empresa', notnull=True,\n          label=T('Empresa'))\n]\nauth.define_tables(username=False, signature=False)\n\n## configure email\nmail = auth.settings.mailer\nmail.settings.server = 'logging' if request.is_local else 'smtp.gmail.com:587'\nmail.settings.sender = 'you@gmail.com'\nmail.settings.login = 'username:password'\n\n## configure auth policy\nauth.settings.registration_requires_verification = False\nauth.settings.registration_requires_approval = False\nauth.settings.reset_password_requires_verification = True\nauth.settings.actions_disabled.append('register')\n\n## if you need to use OpenID, Facebook, MySpace, Twitter, Linkedin, etc.\n## register with janrain.com, write your domain:api_key in private/janrain.key\nfrom gluon.contrib.login_methods.janrain_account import use_janrain\nuse_janrain(auth, filename='private/janrain.key')\n\n#########################################################################\n## Define your tables below (or better in another model file) for example\n##\n## >>> db.define_table('mytable',Field('myfield','string'))\n##\n## Fields can be 'string','text','password','integer','double','boolean'\n##       'date','time','datetime','blob','upload', 'reference TABLENAME'\n## There is an implicit 'id integer autoincrement' field\n## Consult manual for more options, validators, etc.\n##\n## More API examples for controllers:\n##\n## >>> db.mytable.insert(myfield='value')\n## >>> rows=db(db.mytable.myfield=='value').select(db.mytable.ALL)\n## >>> for row in rows: print row.id, row.myfield\n#########################################################################\n\n## after defining tables, uncomment below to enable auditing\n# auth.enable_record_versioning(db)\n\n\nmail.settings.server = settings.email_server\nmail.settings.sender = settings.email_sender\nmail.settings.login = settings.email_login\n"
p7
sS'snapshot'
p8
(dp9
sS'traceback'
p10
S'Traceback (most recent call last):\n  File "/Applications/web2py.app/Contents/Resources/gluon/restricted.py", line 227, in restricted\n  File "/Applications/web2py.app/Contents/Resources/applications/gcontratos/models/db.py", line 14, in <module>\n  File "/Applications/web2py.app/Contents/Resources/gluon/packages/dal/pydal/base.py", line 169, in __call__\n  File "/Applications/web2py.app/Contents/Resources/gluon/packages/dal/pydal/base.py", line 456, in __init__\nRuntimeError: Failure to connect, tried 5 times:\nTraceback (most recent call last):\n  File "/Applications/web2py.app/Contents/Resources/gluon/packages/dal/pydal/base.py", line 434, in __init__\n  File "/Applications/web2py.app/Contents/Resources/gluon/packages/dal/pydal/adapters/base.py", line 53, in __call__\n  File "/Applications/web2py.app/Contents/Resources/gluon/packages/dal/pydal/adapters/mysql.py", line 132, in __init__\n  File "/Applications/web2py.app/Contents/Resources/gluon/packages/dal/pydal/connection.py", line 126, in reconnect\n  File "/Applications/web2py.app/Contents/Resources/gluon/packages/dal/pydal/adapters/mysql.py", line 130, in connector\n  File "/Applications/web2py.app/Contents/Resources/gluon/contrib/pymysql/__init__.py", line 93, in Connect\n  File "/Applications/web2py.app/Contents/Resources/gluon/contrib/pymysql/connections.py", line 575, in __init__\n  File "/Applications/web2py.app/Contents/Resources/gluon/contrib/pymysql/connections.py", line 743, in _connect\nOperationalError: (2003, "Can\'t connect to MySQL server on \'localhost\' (61)")\n\n'
p11
s.